; Function Attrs: nounwind uwtable
define internal ptr @_io_StringIO_getvalue(ptr noundef captures(none) %0, ptr readnone captures(none) %1) #0 {
  %3 = getelementptr inbounds nuw i8, ptr %0, i64 64
  %4 = load i8, ptr %3, align 8, !tbaa !14
  %5 = icmp slt i8 %4, 1
  br i1 %5, label %6, label %8

6:                                                ; preds = %2
  %7 = load ptr, ptr @PyExc_ValueError, align 8, !tbaa !37
  tail call void @PyErr_SetString(ptr noundef %7, ptr noundef nonnull @.str.2) #6
  br label %_io_StringIO_getvalue_impl.exit

8:                                                ; preds = %2
  %9 = getelementptr inbounds nuw i8, ptr %0, i64 65
  %10 = load i8, ptr %9, align 1, !tbaa !38
  %.not.i = icmp eq i8 %10, 0
  br i1 %.not.i, label %13, label %11

11:                                               ; preds = %8
  %12 = load ptr, ptr @PyExc_ValueError, align 8, !tbaa !37
  tail call void @PyErr_SetString(ptr noundef %12, ptr noundef nonnull @.str.3) #6
  br label %_io_StringIO_getvalue_impl.exit

13:                                               ; preds = %8
  %14 = getelementptr inbounds nuw i8, ptr %0, i64 48
  %15 = load i32, ptr %14, align 8, !tbaa !62
  %16 = icmp eq i32 %15, 2
  br i1 %16, label %17, label %19

17:                                               ; preds = %13
  %18 = tail call fastcc ptr @make_intermediate(ptr noundef nonnull %0)
  br label %_io_StringIO_getvalue_impl.exit

19:                                               ; preds = %13
  %20 = getelementptr inbounds nuw i8, ptr %0, i64 16
  %21 = load ptr, ptr %20, align 8, !tbaa !21
  %22 = getelementptr inbounds nuw i8, ptr %0, i64 32
  %23 = load i64, ptr %22, align 8, !tbaa !43
  %24 = tail call ptr @PyUnicode_FromKindAndData(i32 noundef 4, ptr noundef %21, i64 noundef %23) #6
  br label %_io_StringIO_getvalue_impl.exit

_io_StringIO_getvalue_impl.exit:                  ; preds = %6, %11, %17, %19
  %.0.i = phi ptr [ null, %6 ], [ null, %11 ], [ %18, %17 ], [ %24, %19 ]
  ret ptr %.0.i
}